; Function Attrs: mustprogress uwtable
define hidden void @_ZN5ceres8internal10CudaVector5ScaleEd(ptr nocapture noundef nonnull readonly align 8 dereferenceable(48) %0, double noundef %1) local_unnamed_addr #0 align 2 personality ptr @__gxx_personality_v0 {
  %3 = alloca %"class.google::base::CheckOpMessageBuilder", align 8
  %4 = alloca double, align 8
  %5 = alloca %"struct.google::CheckOpString", align 8
  %6 = alloca %"class.google::LogMessageFatal", align 8
  store double %1, ptr %4, align 8
  %7 = getelementptr inbounds i8, ptr %0, i64 8
  %8 = load ptr, ptr %7, align 8
  %9 = getelementptr inbounds i8, ptr %8, i64 256
  %10 = load ptr, ptr %9, align 8
  %11 = load i32, ptr %0, align 8
  %12 = getelementptr inbounds i8, ptr %0, i64 16
  %13 = load ptr, ptr %12, align 8
  %14 = call i32 @cublasDscal_v2(ptr noundef %10, i32 noundef %11, ptr noundef nonnull %4, ptr noundef %13, i32 noundef 1)
  %15 = icmp eq i32 %14, 0
  br i1 %15, label %_ZN6google12Check_EQImplI14cublasStatus_tS1_EEPNSt7__cxx1112basic_stringIcSt11char_traitsIcESaIcEEERKT_RKT0_PKc.exit.thread, label %16

16:                                               ; preds = %2
  call void @llvm.lifetime.start.p0(i64 8, ptr nonnull %3)
  call void @_ZN6google4base21CheckOpMessageBuilderC1EPKc(ptr noundef nonnull align 8 dereferenceable(8) %3, ptr noundef nonnull @.str.18)
  %17 = load ptr, ptr %3, align 8
  %18 = invoke noundef nonnull align 8 dereferenceable(8) ptr @_ZNSolsEi(ptr noundef nonnull align 8 dereferenceable(8) %17, i32 noundef %14)
          to label %_ZN6google22MakeCheckOpValueStringI14cublasStatus_tEEvPSoRKT_.exit.i.i unwind label %23

_ZN6google22MakeCheckOpValueStringI14cublasStatus_tEEvPSoRKT_.exit.i.i: ; preds = %16
  %19 = invoke noundef ptr @_ZN6google4base21CheckOpMessageBuilder7ForVar2Ev(ptr noundef nonnull align 8 dereferenceable(8) %3)
          to label %20 unwind label %23

20:                                               ; preds = %_ZN6google22MakeCheckOpValueStringI14cublasStatus_tEEvPSoRKT_.exit.i.i
  %21 = invoke noundef nonnull align 8 dereferenceable(8) ptr @_ZNSolsEi(ptr noundef nonnull align 8 dereferenceable(8) %19, i32 noundef 0)
          to label %_ZN6google22MakeCheckOpValueStringI14cublasStatus_tEEvPSoRKT_.exit4.i.i unwind label %23

_ZN6google22MakeCheckOpValueStringI14cublasStatus_tEEvPSoRKT_.exit4.i.i: ; preds = %20
  %22 = invoke noundef ptr @_ZN6google4base21CheckOpMessageBuilder9NewStringB5cxx11Ev(ptr noundef nonnull align 8 dereferenceable(8) %3)
          to label %_ZN6google12Check_EQImplI14cublasStatus_tS1_EEPNSt7__cxx1112basic_stringIcSt11char_traitsIcESaIcEEERKT_RKT0_PKc.exit unwind label %23

23:                                               ; preds = %_ZN6google22MakeCheckOpValueStringI14cublasStatus_tEEvPSoRKT_.exit4.i.i, %20, %_ZN6google22MakeCheckOpValueStringI14cublasStatus_tEEvPSoRKT_.exit.i.i, %16
  %24 = landingpad { ptr, i32 }
          cleanup
  call void @_ZN6google4base21CheckOpMessageBuilderD1Ev(ptr noundef nonnull align 8 dereferenceable(8) %3) #11
  resume { ptr, i32 } %24

_ZN6google12Check_EQImplI14cublasStatus_tS1_EEPNSt7__cxx1112basic_stringIcSt11char_traitsIcESaIcEEERKT_RKT0_PKc.exit: ; preds = %_ZN6google22MakeCheckOpValueStringI14cublasStatus_tEEvPSoRKT_.exit4.i.i
  call void @_ZN6google4base21CheckOpMessageBuilderD1Ev(ptr noundef nonnull align 8 dereferenceable(8) %3) #11
  call void @llvm.lifetime.end.p0(i64 8, ptr nonnull %3)
  store ptr %22, ptr %5, align 8
  %.not = icmp eq ptr %22, null
  br i1 %.not, label %_ZN6google12Check_EQImplI14cublasStatus_tS1_EEPNSt7__cxx1112basic_stringIcSt11char_traitsIcESaIcEEERKT_RKT0_PKc.exit.thread, label %25

25:                                               ; preds = %_ZN6google12Check_EQImplI14cublasStatus_tS1_EEPNSt7__cxx1112basic_stringIcSt11char_traitsIcESaIcEEERKT_RKT0_PKc.exit
  call void @_ZN6google15LogMessageFatalC1EPKciRKNS_13CheckOpStringE(ptr noundef nonnull align 8 dereferenceable(96) %6, ptr noundef nonnull @.str.3, i32 noundef 179, ptr noundef nonnull align 8 dereferenceable(8) %5)
  %26 = invoke noundef nonnull align 8 dereferenceable(8) ptr @_ZN6google10LogMessage6streamEv(ptr noundef nonnull align 8 dereferenceable(96) %6)
          to label %27 unwind label %30

27:                                               ; preds = %25
  %28 = invoke noundef nonnull align 8 dereferenceable(8) ptr @_ZStlsISt11char_traitsIcEERSt13basic_ostreamIcT_ES5_PKc(ptr noundef nonnull align 8 dereferenceable(8) %26, ptr noundef nonnull @.str.15)
          to label %29 unwind label %30

29:                                               ; preds = %27
  call void @_ZN6google15LogMessageFatalD1Ev(ptr noundef nonnull align 8 dereferenceable(96) %6) #12
  unreachable

30:                                               ; preds = %27, %25
  %31 = landingpad { ptr, i32 }
          cleanup
  call void @_ZN6google15LogMessageFatalD1Ev(ptr noundef nonnull align 8 dereferenceable(96) %6) #12
  unreachable

_ZN6google12Check_EQImplI14cublasStatus_tS1_EEPNSt7__cxx1112basic_stringIcSt11char_traitsIcESaIcEEERKT_RKT0_PKc.exit.thread: ; preds = %2, %_ZN6google12Check_EQImplI14cublasStatus_tS1_EEPNSt7__cxx1112basic_stringIcSt11char_traitsIcESaIcEEERKT_RKT0_PKc.exit
  ret void
}